target datalayout = "e-m:e-p270:32:32-p271:32:32-p272:64:64-i64:64-i128:128-f80:128-n8:16:32:64-S128"
target triple = "x86_64-pc-linux-gnu"

%"class.std::basic_filebuf" = type { %"class.std::basic_streambuf", %union.pthread_mutex_t, %"class.std::__basic_file", i32, %struct.__mbstate_t, %struct.__mbstate_t, %struct.__mbstate_t, ptr, i64, i8, i8, i8, i8, ptr, ptr, i8, ptr, ptr, i64, ptr, ptr }
%"class.std::basic_streambuf" = type { ptr, ptr, ptr, ptr, ptr, ptr, ptr, %"class.std::locale" }
%"class.std::locale" = type { ptr }
%union.pthread_mutex_t = type { %struct.__pthread_mutex_s }
%struct.__pthread_mutex_s = type { i32, i32, i32, i32, i32, i16, i16, %struct.__pthread_internal_list }
%struct.__pthread_internal_list = type { ptr, ptr }
%"class.std::__basic_file" = type <{ ptr, i8, [7 x i8] }>
%struct.__mbstate_t = type { i32, %union.anon.0 }
%union.anon.0 = type { i32 }
%"class.std::basic_ios" = type { %"class.std::ios_base", ptr, i8, i8, ptr, ptr, ptr, ptr }
%"class.std::ios_base" = type { ptr, i64, i64, i32, i32, i32, ptr, %"struct.std::ios_base::_Words", [8 x %"struct.std::ios_base::_Words"], i32, ptr, %"class.std::locale" }
%"struct.std::ios_base::_Words" = type { ptr, i64 }
%"class.cv::BitStream" = type <{ %"class.std::basic_ofstream", %"class.std::vector.4", ptr, ptr, ptr, i64, i8, [7 x i8] }>
%"class.std::basic_ofstream" = type { %"class.std::basic_ostream.base", %"class.std::basic_filebuf", %"class.std::basic_ios" }
%"class.std::basic_ostream.base" = type { ptr }
%"class.std::vector.4" = type { %"struct.std::_Vector_base.5" }
%"struct.std::_Vector_base.5" = type { %"struct.std::_Vector_base<unsigned char, std::allocator<unsigned char>>::_Vector_impl" }
%"struct.std::_Vector_base<unsigned char, std::allocator<unsigned char>>::_Vector_impl" = type { %"struct.std::_Vector_base<unsigned char, std::allocator<unsigned char>>::_Vector_impl_data" }
%"struct.std::_Vector_base<unsigned char, std::allocator<unsigned char>>::_Vector_impl_data" = type { ptr, ptr, ptr }

; Function Attrs: mustprogress uwtable
define hidden void @_ZN2cv9BitStream10writeBlockEv(ptr noundef nonnull align 8 dereferenceable(569) %0) #6 align 2 {
  %2 = alloca ptr, align 8
  %3 = alloca i64, align 8
  store ptr %0, ptr %2, align 8, !tbaa !142
  %4 = load ptr, ptr %2, align 8
  call void @llvm.lifetime.start.p0(i64 8, ptr %3) #3
  %5 = getelementptr inbounds nuw %"class.cv::BitStream", ptr %4, i32 0, i32 4
  %6 = load ptr, ptr %5, align 8, !tbaa !154
  %7 = getelementptr inbounds nuw %"class.cv::BitStream", ptr %4, i32 0, i32 2
  %8 = load ptr, ptr %7, align 8, !tbaa !144
  %9 = ptrtoint ptr %6 to i64
  %10 = ptrtoint ptr %8 to i64
  %11 = sub i64 %9, %10
  store i64 %11, ptr %3, align 8, !tbaa !36
  %12 = load i64, ptr %3, align 8, !tbaa !36
  %13 = icmp sgt i64 %12, 0
  br i1 %13, label %14, label %20

14:                                               ; preds = %1
  %15 = getelementptr inbounds nuw %"class.cv::BitStream", ptr %4, i32 0, i32 0
  %16 = getelementptr inbounds nuw %"class.cv::BitStream", ptr %4, i32 0, i32 2
  %17 = load ptr, ptr %16, align 8, !tbaa !144
  %18 = load i64, ptr %3, align 8, !tbaa !36
  %19 = call noundef nonnull align 8 dereferenceable(8) ptr @_ZNSo5writeEPKcl(ptr noundef nonnull align 8 dereferenceable(8) %15, ptr noundef %17, i64 noundef %18)
  br label %20

20:                                               ; preds = %14, %1
  %21 = load i64, ptr %3, align 8, !tbaa !36
  %22 = getelementptr inbounds nuw %"class.cv::BitStream", ptr %4, i32 0, i32 5
  %23 = load i64, ptr %22, align 8, !tbaa !155
  %24 = add i64 %23, %21
  store i64 %24, ptr %22, align 8, !tbaa !155
  %25 = getelementptr inbounds nuw %"class.cv::BitStream", ptr %4, i32 0, i32 2
  %26 = load ptr, ptr %25, align 8, !tbaa !144
  %27 = getelementptr inbounds nuw %"class.cv::BitStream", ptr %4, i32 0, i32 4
  store ptr %26, ptr %27, align 8, !tbaa !154
  call void @llvm.lifetime.end.p0(i64 8, ptr %3) #3
  ret void
}

; Function Attrs: mustprogress uwtable
define hidden void @_ZN2cv9BitStream6jflushEji(ptr noundef nonnull align 8 dereferenceable(569) %0, i32 noundef %1, i32 noundef %2) #6 align 2 {
  %4 = alloca ptr, align 8
  %5 = alloca i32, align 4
  %6 = alloca i32, align 4
  %7 = alloca i8, align 1
  %8 = alloca ptr, align 8
  store ptr %0, ptr %4, align 8, !tbaa !142
  store i32 %1, ptr %5, align 4, !tbaa !3
  store i32 %2, ptr %6, align 4, !tbaa !3
  %9 = load ptr, ptr %4, align 8
  call void @llvm.lifetime.start.p0(i64 1, ptr %7) #3
  call void @llvm.lifetime.start.p0(i64 8, ptr %8) #3
  %10 = getelementptr inbounds nuw %"class.cv::BitStream", ptr %9, i32 0, i32 4
  %11 = load ptr, ptr %10, align 8, !tbaa !154
  store ptr %11, ptr %8, align 8, !tbaa !35
  %12 = load i32, ptr %6, align 4, !tbaa !3
  %13 = shl i32 1, %12
  %14 = sub nsw i32 %13, 1
  %15 = load i32, ptr %5, align 4, !tbaa !3
  %16 = or i32 %15, %14
  store i32 %16, ptr %5, align 4, !tbaa !3
  br label %17

17:                                               ; preds = %33, %3
  %18 = load i32, ptr %6, align 4, !tbaa !3
  %19 = icmp slt i32 %18, 32
  br i1 %19, label %20, label %38

20:                                               ; preds = %17
  %21 = load i32, ptr %5, align 4, !tbaa !3
  %22 = lshr i32 %21, 24
  %23 = trunc i32 %22 to i8
  store i8 %23, ptr %7, align 1, !tbaa !7
  %24 = load i8, ptr %7, align 1, !tbaa !7
  %25 = load ptr, ptr %8, align 8, !tbaa !35
  %26 = getelementptr inbounds nuw i8, ptr %25, i32 1
  store ptr %26, ptr %8, align 8, !tbaa !35
  store i8 %24, ptr %25, align 1, !tbaa !7
  %27 = load i8, ptr %7, align 1, !tbaa !7
  %28 = zext i8 %27 to i32
  %29 = icmp eq i32 %28, 255
  br i1 %29, label %30, label %33

30:                                               ; preds = %20
  %31 = load ptr, ptr %8, align 8, !tbaa !35
  %32 = getelementptr inbounds nuw i8, ptr %31, i32 1
  store ptr %32, ptr %8, align 8, !tbaa !35
  store i8 0, ptr %31, align 1, !tbaa !7
  br label %33

33:                                               ; preds = %30, %20
  %34 = load i32, ptr %5, align 4, !tbaa !3
  %35 = shl i32 %34, 8
  store i32 %35, ptr %5, align 4, !tbaa !3
  %36 = load i32, ptr %6, align 4, !tbaa !3
  %37 = add nsw i32 %36, 8
  store i32 %37, ptr %6, align 4, !tbaa !3
  br label %17, !llvm.loop !174

38:                                               ; preds = %17
  %39 = load ptr, ptr %8, align 8, !tbaa !35
  %40 = getelementptr inbounds nuw %"class.cv::BitStream", ptr %9, i32 0, i32 4
  store ptr %39, ptr %40, align 8, !tbaa !154
  %41 = getelementptr inbounds nuw %"class.cv::BitStream", ptr %9, i32 0, i32 4
  %42 = load ptr, ptr %41, align 8, !tbaa !154
  %43 = getelementptr inbounds nuw %"class.cv::BitStream", ptr %9, i32 0, i32 3
  %44 = load ptr, ptr %43, align 8, !tbaa !152
  %45 = icmp uge ptr %42, %44
  br i1 %45, label %46, label %47

46:                                               ; preds = %38
  call void @_ZN2cv9BitStream10writeBlockEv(ptr noundef nonnull align 8 dereferenceable(569) %9)
  br label %47

47:                                               ; preds = %46, %38
  call void @llvm.lifetime.end.p0(i64 8, ptr %8) #3
  call void @llvm.lifetime.end.p0(i64 1, ptr %7) #3
  ret void
}