; Function Attrs: mustprogress uwtable
define hidden void @_ZN2cv9BitStream6jflushEji(ptr noundef nonnull align 8 dereferenceable(569) %0, i32 noundef %1, i32 noundef %2) local_unnamed_addr #4 align 2 {
  %4 = getelementptr inbounds nuw i8, ptr %0, i64 552
  %5 = load ptr, ptr %4, align 8, !tbaa !133
  %6 = icmp slt i32 %2, 32
  br i1 %6, label %.lr.ph.preheader, label %._crit_edge

.lr.ph.preheader:                                 ; preds = %3
  %notmask = shl nsw i32 -1, %2
  %7 = xor i32 %notmask, -1
  %8 = or i32 %1, %7
  br label %.lr.ph

.lr.ph:                                           ; preds = %.lr.ph.preheader, %15
  %.015 = phi ptr [ %.1, %15 ], [ %5, %.lr.ph.preheader ]
  %.01114 = phi i32 [ %16, %15 ], [ %8, %.lr.ph.preheader ]
  %.01213 = phi i32 [ %17, %15 ], [ %2, %.lr.ph.preheader ]
  %9 = lshr i32 %.01114, 24
  %10 = trunc nuw i32 %9 to i8
  %11 = getelementptr inbounds nuw i8, ptr %.015, i64 1
  store i8 %10, ptr %.015, align 1, !tbaa !27
  %12 = icmp eq i32 %9, 255
  br i1 %12, label %13, label %15

13:                                               ; preds = %.lr.ph
  %14 = getelementptr inbounds nuw i8, ptr %.015, i64 2
  store i8 0, ptr %11, align 1, !tbaa !27
  br label %15

15:                                               ; preds = %13, %.lr.ph
  %.1 = phi ptr [ %14, %13 ], [ %11, %.lr.ph ]
  %16 = shl i32 %.01114, 8
  %17 = add nsw i32 %.01213, 8
  %18 = icmp slt i32 %.01213, 24
  br i1 %18, label %.lr.ph, label %._crit_edge, !llvm.loop !149

._crit_edge:                                      ; preds = %15, %3
  %.0.lcssa = phi ptr [ %5, %3 ], [ %.1, %15 ]
  store ptr %.0.lcssa, ptr %4, align 8, !tbaa !133
  %19 = getelementptr inbounds nuw i8, ptr %0, i64 544
  %20 = load ptr, ptr %19, align 8, !tbaa !130
  %.not = icmp ult ptr %.0.lcssa, %20
  br i1 %.not, label %34, label %21

21:                                               ; preds = %._crit_edge
  %22 = getelementptr inbounds nuw i8, ptr %0, i64 536
  %23 = load ptr, ptr %22, align 8, !tbaa !123
  %24 = ptrtoint ptr %.0.lcssa to i64
  %25 = ptrtoint ptr %23 to i64
  %26 = sub i64 %24, %25
  %27 = icmp sgt i64 %26, 0
  br i1 %27, label %28, label %_ZN2cv9BitStream10writeBlockEv.exit

28:                                               ; preds = %21
  %29 = tail call noundef nonnull align 8 dereferenceable(8) ptr @_ZNSo5writeEPKcl(ptr noundef nonnull align 8 dereferenceable(569) %0, ptr noundef %23, i64 noundef %26)
  %.pre.i = load ptr, ptr %22, align 8, !tbaa !123
  br label %_ZN2cv9BitStream10writeBlockEv.exit

_ZN2cv9BitStream10writeBlockEv.exit:              ; preds = %21, %28
  %30 = phi ptr [ %.pre.i, %28 ], [ %23, %21 ]
  %31 = getelementptr inbounds nuw i8, ptr %0, i64 560
  %32 = load i64, ptr %31, align 8, !tbaa !134
  %33 = add i64 %32, %26
  store i64 %33, ptr %31, align 8, !tbaa !134
  store ptr %30, ptr %4, align 8, !tbaa !133
  br label %34

34:                                               ; preds = %_ZN2cv9BitStream10writeBlockEv.exit, %._crit_edge
  ret void
}